target datalayout = "e-m:e-p270:32:32-p271:32:32-p272:64:64-i64:64-i128:128-f80:128-n8:16:32:64-S128"
target triple = "x86_64-pc-linux-gnu"

%"struct.cmPolicies::PolicyMap" = type { %"class.std::bitset.148" }
%"class.std::bitset.148" = type { %"struct.std::_Base_bitset.149" }
%"struct.std::_Base_bitset.149" = type { [9 x i64] }
%"class.std::bitset<558>::reference" = type { ptr, i64 }

; Function Attrs: mustprogress nounwind uwtable
define linkonce_odr dso_local noundef i64 @_ZNSt12_Base_bitsetILm9EE12_S_whichwordEm(i64 noundef %0) #6 comdat align 2 {
  %2 = alloca i64, align 8
  store i64 %0, ptr %2, align 8, !tbaa !17
  %3 = load i64, ptr %2, align 8, !tbaa !17
  %4 = udiv i64 %3, 64
  ret i64 %4
}

; Function Attrs: mustprogress nounwind uwtable
define linkonce_odr dso_local noundef i64 @_ZNSt12_Base_bitsetILm9EE11_S_whichbitEm(i64 noundef %0) #6 comdat align 2 {
  %2 = alloca i64, align 8
  store i64 %0, ptr %2, align 8, !tbaa !17
  %3 = load i64, ptr %2, align 8, !tbaa !17
  %4 = urem i64 %3, 64
  ret i64 %4
}

; Function Attrs: mustprogress nounwind uwtable
define linkonce_odr dso_local noundef nonnull align 8 dereferenceable(8) ptr @_ZNSt12_Base_bitsetILm9EE10_M_getwordEm(ptr noundef nonnull align 8 dereferenceable(72) %0, i64 noundef %1) #6 comdat align 2 {
  %3 = alloca ptr, align 8
  %4 = alloca i64, align 8
  store ptr %0, ptr %3, align 8, !tbaa !177
  store i64 %1, ptr %4, align 8, !tbaa !17
  %5 = load ptr, ptr %3, align 8
  %6 = getelementptr inbounds nuw %"struct.std::_Base_bitset.149", ptr %5, i32 0, i32 0
  %7 = load i64, ptr %4, align 8, !tbaa !17
  %8 = call noundef i64 @_ZNSt12_Base_bitsetILm9EE12_S_whichwordEm(i64 noundef %7) #3
  %9 = getelementptr inbounds nuw [9 x i64], ptr %6, i64 0, i64 %8
  ret ptr %9
}

; Function Attrs: mustprogress nounwind uwtable
define linkonce_odr dso_local noundef i64 @_ZNSt12_Base_bitsetILm9EE10_S_maskbitEm(i64 noundef %0) #6 comdat align 2 {
  %2 = alloca i64, align 8
  store i64 %0, ptr %2, align 8, !tbaa !17
  %3 = load i64, ptr %2, align 8, !tbaa !17
  %4 = call noundef i64 @_ZNSt12_Base_bitsetILm9EE11_S_whichbitEm(i64 noundef %3) #3
  %5 = shl i64 1, %4
  ret i64 %5
}

; Function Attrs: mustprogress nounwind uwtable
define linkonce_odr dso_local void @_ZNSt6bitsetILm558EE9referenceC2ERS0_m(ptr noundef nonnull align 8 dereferenceable(16) %0, ptr noundef nonnull align 8 dereferenceable(72) %1, i64 noundef %2) unnamed_addr #6 comdat align 2 {
  %4 = alloca ptr, align 8
  %5 = alloca ptr, align 8
  %6 = alloca i64, align 8
  store ptr %0, ptr %4, align 8, !tbaa !56
  store ptr %1, ptr %5, align 8, !tbaa !54
  store i64 %2, ptr %6, align 8, !tbaa !17
  %7 = load ptr, ptr %4, align 8
  %8 = load ptr, ptr %5, align 8, !tbaa !54
  %9 = load i64, ptr %6, align 8, !tbaa !17
  %10 = call noundef nonnull align 8 dereferenceable(8) ptr @_ZNSt12_Base_bitsetILm9EE10_M_getwordEm(ptr noundef nonnull align 8 dereferenceable(72) %8, i64 noundef %9) #3
  %11 = getelementptr inbounds nuw %"class.std::bitset<558>::reference", ptr %7, i32 0, i32 0
  store ptr %10, ptr %11, align 8, !tbaa !63
  %12 = load i64, ptr %6, align 8, !tbaa !17
  %13 = call noundef i64 @_ZNSt12_Base_bitsetILm9EE11_S_whichbitEm(i64 noundef %12) #3
  %14 = getelementptr inbounds nuw %"class.std::bitset<558>::reference", ptr %7, i32 0, i32 1
  store i64 %13, ptr %14, align 8, !tbaa !60
  ret void
}

; Function Attrs: mustprogress nounwind uwtable
define linkonce_odr dso_local void @_ZNSt6bitsetILm558EE9referenceD2Ev(ptr noundef nonnull align 8 dereferenceable(16) %0) unnamed_addr #6 comdat align 2 {
  %2 = alloca ptr, align 8
  store ptr %0, ptr %2, align 8, !tbaa !56
  ret void
}

; Function Attrs: mustprogress nounwind uwtable
define linkonce_odr dso_local noundef nonnull align 8 dereferenceable(16) ptr @_ZNSt6bitsetILm558EE9referenceaSEb(ptr noundef nonnull align 8 dereferenceable(16) %0, i1 noundef zeroext %1) #6 comdat align 2 {
  %3 = alloca ptr, align 8
  %4 = alloca i8, align 1
  store ptr %0, ptr %3, align 8, !tbaa !56
  %5 = zext i1 %1 to i8
  store i8 %5, ptr %4, align 1, !tbaa !40
  %6 = load ptr, ptr %3, align 8
  %7 = load i8, ptr %4, align 1, !tbaa !40, !range !58, !noundef !59
  %8 = trunc i8 %7 to i1
  br i1 %8, label %9, label %17

9:                                                ; preds = %2
  %10 = getelementptr inbounds nuw %"class.std::bitset<558>::reference", ptr %6, i32 0, i32 1
  %11 = load i64, ptr %10, align 8, !tbaa !60
  %12 = call noundef i64 @_ZNSt12_Base_bitsetILm9EE10_S_maskbitEm(i64 noundef %11) #3
  %13 = getelementptr inbounds nuw %"class.std::bitset<558>::reference", ptr %6, i32 0, i32 0
  %14 = load ptr, ptr %13, align 8, !tbaa !63
  %15 = load i64, ptr %14, align 8, !tbaa !17
  %16 = or i64 %15, %12
  store i64 %16, ptr %14, align 8, !tbaa !17
  br label %26

17:                                               ; preds = %2
  %18 = getelementptr inbounds nuw %"class.std::bitset<558>::reference", ptr %6, i32 0, i32 1
  %19 = load i64, ptr %18, align 8, !tbaa !60
  %20 = call noundef i64 @_ZNSt12_Base_bitsetILm9EE10_S_maskbitEm(i64 noundef %19) #3
  %21 = xor i64 %20, -1
  %22 = getelementptr inbounds nuw %"class.std::bitset<558>::reference", ptr %6, i32 0, i32 0
  %23 = load ptr, ptr %22, align 8, !tbaa !63
  %24 = load i64, ptr %23, align 8, !tbaa !17
  %25 = and i64 %24, %21
  store i64 %25, ptr %23, align 8, !tbaa !17
  br label %26

26:                                               ; preds = %17, %9
  ret ptr %6
}

; Function Attrs: mustprogress nounwind uwtable
define linkonce_odr dso_local void @_ZNSt6bitsetILm558EEixEm(ptr dead_on_unwind noalias writable sret(%"class.std::bitset<558>::reference") align 8 %0, ptr noundef nonnull align 8 dereferenceable(72) %1, i64 noundef %2) #6 comdat align 2 {
  %4 = alloca ptr, align 8
  %5 = alloca ptr, align 8
  %6 = alloca i64, align 8
  store ptr %0, ptr %4, align 8
  store ptr %1, ptr %5, align 8, !tbaa !54
  store i64 %2, ptr %6, align 8, !tbaa !17
  %7 = load ptr, ptr %5, align 8
  %8 = load i64, ptr %6, align 8, !tbaa !17
  call void @_ZNSt6bitsetILm558EE9referenceC2ERS0_m(ptr noundef nonnull align 8 dereferenceable(16) %0, ptr noundef nonnull align 8 dereferenceable(72) %7, i64 noundef %8) #3
  ret void
}

; Function Attrs: mustprogress uwtable
define dso_local void @_ZN10cmPolicies9PolicyMap3SetENS_8PolicyIDENS_12PolicyStatusE(ptr noundef nonnull align 8 dereferenceable(72) %0, i32 noundef %1, i32 noundef %2) #5 align 2 {
  %4 = alloca ptr, align 8
  %5 = alloca i32, align 4
  %6 = alloca i32, align 4
  %7 = alloca %"class.std::bitset<558>::reference", align 8
  %8 = alloca %"class.std::bitset<558>::reference", align 8
  %9 = alloca %"class.std::bitset<558>::reference", align 8
  store ptr %0, ptr %4, align 8, !tbaa !52
  store i32 %1, ptr %5, align 4, !tbaa !34
  store i32 %2, ptr %6, align 4, !tbaa !36
  %10 = load ptr, ptr %4, align 8
  %11 = load i32, ptr %6, align 4, !tbaa !36
  %12 = icmp eq i32 %11, 0
  call void @llvm.lifetime.start.p0(i64 16, ptr %7) #3
  %13 = getelementptr inbounds nuw %"struct.cmPolicies::PolicyMap", ptr %10, i32 0, i32 0
  %14 = load i32, ptr %5, align 4, !tbaa !34
  %15 = mul nsw i32 3, %14
  %16 = add nsw i32 %15, 0
  %17 = sext i32 %16 to i64
  call void @_ZNSt6bitsetILm558EEixEm(ptr dead_on_unwind writable sret(%"class.std::bitset<558>::reference") align 8 %7, ptr noundef nonnull align 8 dereferenceable(72) %13, i64 noundef %17)
  %18 = call noundef nonnull align 8 dereferenceable(16) ptr @_ZNSt6bitsetILm558EE9referenceaSEb(ptr noundef nonnull align 8 dereferenceable(16) %7, i1 noundef zeroext %12) #3
  call void @_ZNSt6bitsetILm558EE9referenceD2Ev(ptr noundef nonnull align 8 dereferenceable(16) %7) #3
  call void @llvm.lifetime.end.p0(i64 16, ptr %7) #3
  %19 = load i32, ptr %6, align 4, !tbaa !36
  %20 = icmp eq i32 %19, 1
  call void @llvm.lifetime.start.p0(i64 16, ptr %8) #3
  %21 = getelementptr inbounds nuw %"struct.cmPolicies::PolicyMap", ptr %10, i32 0, i32 0
  %22 = load i32, ptr %5, align 4, !tbaa !34
  %23 = mul nsw i32 3, %22
  %24 = add nsw i32 %23, 1
  %25 = sext i32 %24 to i64
  call void @_ZNSt6bitsetILm558EEixEm(ptr dead_on_unwind writable sret(%"class.std::bitset<558>::reference") align 8 %8, ptr noundef nonnull align 8 dereferenceable(72) %21, i64 noundef %25)
  %26 = call noundef nonnull align 8 dereferenceable(16) ptr @_ZNSt6bitsetILm558EE9referenceaSEb(ptr noundef nonnull align 8 dereferenceable(16) %8, i1 noundef zeroext %20) #3
  call void @_ZNSt6bitsetILm558EE9referenceD2Ev(ptr noundef nonnull align 8 dereferenceable(16) %8) #3
  call void @llvm.lifetime.end.p0(i64 16, ptr %8) #3
  %27 = load i32, ptr %6, align 4, !tbaa !36
  %28 = icmp eq i32 %27, 2
  call void @llvm.lifetime.start.p0(i64 16, ptr %9) #3
  %29 = getelementptr inbounds nuw %"struct.cmPolicies::PolicyMap", ptr %10, i32 0, i32 0
  %30 = load i32, ptr %5, align 4, !tbaa !34
  %31 = mul nsw i32 3, %30
  %32 = add nsw i32 %31, 2
  %33 = sext i32 %32 to i64
  call void @_ZNSt6bitsetILm558EEixEm(ptr dead_on_unwind writable sret(%"class.std::bitset<558>::reference") align 8 %9, ptr noundef nonnull align 8 dereferenceable(72) %29, i64 noundef %33)
  %34 = call noundef nonnull align 8 dereferenceable(16) ptr @_ZNSt6bitsetILm558EE9referenceaSEb(ptr noundef nonnull align 8 dereferenceable(16) %9, i1 noundef zeroext %28) #3
  call void @_ZNSt6bitsetILm558EE9referenceD2Ev(ptr noundef nonnull align 8 dereferenceable(16) %9) #3
  call void @llvm.lifetime.end.p0(i64 16, ptr %9) #3
  ret void
}