; Function Attrs: mustprogress nofree norecurse nosync nounwind willreturn memory(argmem: readwrite) uwtable
define dso_local void @_ZN10cmPolicies9PolicyMap3SetENS_8PolicyIDENS_12PolicyStatusE(ptr noundef nonnull align 8 captures(none) dereferenceable(72) %0, i32 noundef %1, i32 noundef %2) local_unnamed_addr #9 align 2 {
  %4 = icmp eq i32 %2, 0
  %5 = mul nsw i32 %1, 3
  %6 = sext i32 %5 to i64
  %7 = lshr i64 %6, 6
  %8 = getelementptr inbounds nuw [9 x i64], ptr %0, i64 0, i64 %7
  %9 = and i64 %6, 63
  %10 = shl nuw i64 1, %9
  br i1 %4, label %_ZNSt6bitsetILm558EE9referenceaSEb.exit.thread, label %_ZNSt6bitsetILm558EE9referenceaSEb.exit

_ZNSt6bitsetILm558EE9referenceaSEb.exit.thread:   ; preds = %3
  %11 = load i64, ptr %8, align 8, !tbaa !17
  %12 = or i64 %11, %10
  store i64 %12, ptr %8, align 8, !tbaa !17
  %13 = add nsw i32 %5, 1
  %14 = sext i32 %13 to i64
  %15 = lshr i64 %14, 6
  %16 = getelementptr inbounds nuw [9 x i64], ptr %0, i64 0, i64 %15
  %17 = and i64 %14, 63
  %18 = shl nuw i64 1, %17
  br label %_ZNSt6bitsetILm558EE9referenceaSEb.exit6

_ZNSt6bitsetILm558EE9referenceaSEb.exit:          ; preds = %3
  %19 = xor i64 %10, -1
  %20 = load i64, ptr %8, align 8, !tbaa !17
  %21 = and i64 %20, %19
  store i64 %21, ptr %8, align 8, !tbaa !17
  %22 = icmp eq i32 %2, 1
  %23 = add nsw i32 %5, 1
  %24 = sext i32 %23 to i64
  %25 = lshr i64 %24, 6
  %26 = getelementptr inbounds nuw [9 x i64], ptr %0, i64 0, i64 %25
  %27 = and i64 %24, 63
  %28 = shl nuw i64 1, %27
  br i1 %22, label %_ZNSt6bitsetILm558EE9referenceaSEb.exit6.thread, label %_ZNSt6bitsetILm558EE9referenceaSEb.exit6

_ZNSt6bitsetILm558EE9referenceaSEb.exit6.thread:  ; preds = %_ZNSt6bitsetILm558EE9referenceaSEb.exit
  %29 = load i64, ptr %26, align 8, !tbaa !17
  %30 = or i64 %29, %28
  store i64 %30, ptr %26, align 8, !tbaa !17
  %31 = add nsw i32 %5, 2
  %32 = sext i32 %31 to i64
  %33 = lshr i64 %32, 6
  %34 = getelementptr inbounds nuw [9 x i64], ptr %0, i64 0, i64 %33
  %35 = and i64 %32, 63
  %36 = shl nuw i64 1, %35
  br label %52

_ZNSt6bitsetILm558EE9referenceaSEb.exit6:         ; preds = %_ZNSt6bitsetILm558EE9referenceaSEb.exit, %_ZNSt6bitsetILm558EE9referenceaSEb.exit.thread
  %37 = phi i64 [ %18, %_ZNSt6bitsetILm558EE9referenceaSEb.exit.thread ], [ %28, %_ZNSt6bitsetILm558EE9referenceaSEb.exit ]
  %38 = phi ptr [ %16, %_ZNSt6bitsetILm558EE9referenceaSEb.exit.thread ], [ %26, %_ZNSt6bitsetILm558EE9referenceaSEb.exit ]
  %39 = xor i64 %37, -1
  %40 = load i64, ptr %38, align 8, !tbaa !17
  %41 = and i64 %40, %39
  store i64 %41, ptr %38, align 8, !tbaa !17
  %42 = icmp eq i32 %2, 2
  %43 = add nsw i32 %5, 2
  %44 = sext i32 %43 to i64
  %45 = lshr i64 %44, 6
  %46 = getelementptr inbounds nuw [9 x i64], ptr %0, i64 0, i64 %45
  %47 = and i64 %44, 63
  %48 = shl nuw i64 1, %47
  br i1 %42, label %49, label %52

49:                                               ; preds = %_ZNSt6bitsetILm558EE9referenceaSEb.exit6
  %50 = load i64, ptr %46, align 8, !tbaa !17
  %51 = or i64 %50, %48
  store i64 %51, ptr %46, align 8, !tbaa !17
  br label %_ZNSt6bitsetILm558EE9referenceaSEb.exit7

52:                                               ; preds = %_ZNSt6bitsetILm558EE9referenceaSEb.exit6.thread, %_ZNSt6bitsetILm558EE9referenceaSEb.exit6
  %53 = phi i64 [ %36, %_ZNSt6bitsetILm558EE9referenceaSEb.exit6.thread ], [ %48, %_ZNSt6bitsetILm558EE9referenceaSEb.exit6 ]
  %54 = phi ptr [ %34, %_ZNSt6bitsetILm558EE9referenceaSEb.exit6.thread ], [ %46, %_ZNSt6bitsetILm558EE9referenceaSEb.exit6 ]
  %55 = xor i64 %53, -1
  %56 = load i64, ptr %54, align 8, !tbaa !17
  %57 = and i64 %56, %55
  store i64 %57, ptr %54, align 8, !tbaa !17
  br label %_ZNSt6bitsetILm558EE9referenceaSEb.exit7

_ZNSt6bitsetILm558EE9referenceaSEb.exit7:         ; preds = %49, %52
  ret void
}